target datalayout = "e-m:e-p270:32:32-p271:32:32-p272:64:64-i64:64-i128:128-f80:128-n8:16:32:64-S128"
target triple = "x86_64-pc-linux-gnu"

%struct.cache_entry = type { %struct.hashmap_entry, %struct.stat_data, i32, i32, i32, i32, i32, %struct.object_id, [0 x i8] }
%struct.hashmap_entry = type { ptr, i32 }
%struct.stat_data = type { %struct.cache_time, %struct.cache_time, i32, i32, i32, i32, i32 }
%struct.cache_time = type { i32, i32 }
%struct.object_id = type { [32 x i8], i32 }

@.str.6 = private unnamed_addr constant [5 x i8] c"HEAD\00", align 1

; Function Attrs: nounwind uwtable
define dso_local i32 @remove_or_warn(i32 noundef %0, ptr noundef %1) #0 {
  %3 = alloca i32, align 4
  %4 = alloca ptr, align 8
  store i32 %0, ptr %3, align 4, !tbaa !16
  store ptr %1, ptr %4, align 8, !tbaa !56
  %5 = load i32, ptr %3, align 4, !tbaa !16
  %6 = and i32 %5, 61440
  %7 = icmp eq i32 %6, 57344
  br i1 %7, label %8, label %11

8:                                                ; preds = %2
  %9 = load ptr, ptr %4, align 8, !tbaa !56
  %10 = call i32 @rmdir_or_warn(ptr noundef %9)
  br label %14

11:                                               ; preds = %2
  %12 = load ptr, ptr %4, align 8, !tbaa !56
  %13 = call i32 @unlink_or_warn(ptr noundef %12)
  br label %14

14:                                               ; preds = %11, %8
  %15 = phi i32 [ %10, %8 ], [ %13, %11 ]
  ret i32 %15
}

; Function Attrs: nounwind uwtable
define dso_local void @unlink_entry(ptr noundef %0, ptr noundef %1) #0 {
  %3 = alloca ptr, align 8
  %4 = alloca ptr, align 8
  %5 = alloca ptr, align 8
  %6 = alloca i32, align 4
  store ptr %0, ptr %3, align 8, !tbaa !4
  store ptr %1, ptr %4, align 8, !tbaa !56
  call void @llvm.lifetime.start.p0(i64 8, ptr %5) #10
  %7 = load ptr, ptr %3, align 8, !tbaa !4
  %8 = call ptr @submodule_from_ce(ptr noundef %7)
  store ptr %8, ptr %5, align 8, !tbaa !84
  %9 = load ptr, ptr %5, align 8, !tbaa !84
  %10 = icmp ne ptr %9, null
  br i1 %10, label %11, label %17

11:                                               ; preds = %2
  %12 = load ptr, ptr %3, align 8, !tbaa !4
  %13 = getelementptr inbounds nuw %struct.cache_entry, ptr %12, i32 0, i32 8
  %14 = getelementptr inbounds [0 x i8], ptr %13, i64 0, i64 0
  %15 = load ptr, ptr %4, align 8, !tbaa !56
  %16 = call i32 @submodule_move_head(ptr noundef %14, ptr noundef %15, ptr noundef @.str.6, ptr noundef null, i32 noundef 2)
  br label %17

17:                                               ; preds = %11, %2
  %18 = load ptr, ptr %3, align 8, !tbaa !4
  %19 = getelementptr inbounds nuw %struct.cache_entry, ptr %18, i32 0, i32 8
  %20 = getelementptr inbounds [0 x i8], ptr %19, i64 0, i64 0
  %21 = load ptr, ptr %3, align 8, !tbaa !4
  %22 = getelementptr inbounds nuw %struct.cache_entry, ptr %21, i32 0, i32 5
  %23 = load i32, ptr %22, align 8, !tbaa !16
  %24 = call i32 @check_leading_path(ptr noundef %20, i32 noundef %23, i32 noundef 1)
  %25 = icmp sge i32 %24, 0
  br i1 %25, label %26, label %27

26:                                               ; preds = %17
  store i32 1, ptr %6, align 4
  br label %44

27:                                               ; preds = %17
  %28 = load ptr, ptr %3, align 8, !tbaa !4
  %29 = getelementptr inbounds nuw %struct.cache_entry, ptr %28, i32 0, i32 2
  %30 = load i32, ptr %29, align 4, !tbaa !16
  %31 = load ptr, ptr %3, align 8, !tbaa !4
  %32 = getelementptr inbounds nuw %struct.cache_entry, ptr %31, i32 0, i32 8
  %33 = getelementptr inbounds [0 x i8], ptr %32, i64 0, i64 0
  %34 = call i32 @remove_or_warn(i32 noundef %30, ptr noundef %33)
  %35 = icmp ne i32 %34, 0
  br i1 %35, label %36, label %37

36:                                               ; preds = %27
  store i32 1, ptr %6, align 4
  br label %44

37:                                               ; preds = %27
  %38 = load ptr, ptr %3, align 8, !tbaa !4
  %39 = getelementptr inbounds nuw %struct.cache_entry, ptr %38, i32 0, i32 8
  %40 = getelementptr inbounds [0 x i8], ptr %39, i64 0, i64 0
  %41 = load ptr, ptr %3, align 8, !tbaa !4
  %42 = getelementptr inbounds nuw %struct.cache_entry, ptr %41, i32 0, i32 5
  %43 = load i32, ptr %42, align 8, !tbaa !16
  call void @schedule_dir_for_removal(ptr noundef %40, i32 noundef %43)
  store i32 0, ptr %6, align 4
  br label %44

44:                                               ; preds = %37, %36, %26
  call void @llvm.lifetime.end.p0(i64 8, ptr %5) #10
  %45 = load i32, ptr %6, align 4
  switch i32 %45, label %47 [
    i32 0, label %46
    i32 1, label %46
  ]

46:                                               ; preds = %44, %44
  ret void

47:                                               ; preds = %44
  unreachable
}