; Function Attrs: nounwind uwtable
define dso_local void @unlink_entry(ptr noundef %0, ptr noundef %1) local_unnamed_addr #0 {
  %3 = tail call ptr @submodule_from_ce(ptr noundef %0) #16
  %.not = icmp eq ptr %3, null
  br i1 %.not, label %7, label %4

4:                                                ; preds = %2
  %5 = getelementptr inbounds nuw i8, ptr %0, i64 108
  %6 = tail call i32 @submodule_move_head(ptr noundef nonnull %5, ptr noundef %1, ptr noundef nonnull @.str.6, ptr noundef null, i32 noundef 2) #16
  br label %7

7:                                                ; preds = %4, %2
  %8 = getelementptr inbounds nuw i8, ptr %0, i64 108
  %9 = getelementptr inbounds nuw i8, ptr %0, i64 64
  %10 = load i32, ptr %9, align 8, !tbaa !11
  %11 = tail call i32 @check_leading_path(ptr noundef nonnull %8, i32 noundef %10, i32 noundef 1) #16
  %12 = icmp sgt i32 %11, -1
  br i1 %12, label %25, label %13

13:                                               ; preds = %7
  %14 = getelementptr inbounds nuw i8, ptr %0, i64 52
  %15 = load i32, ptr %14, align 4, !tbaa !11
  %16 = and i32 %15, 61440
  %17 = icmp eq i32 %16, 57344
  br i1 %17, label %18, label %20

18:                                               ; preds = %13
  %19 = tail call i32 @rmdir_or_warn(ptr noundef nonnull %8) #16
  br label %remove_or_warn.exit

20:                                               ; preds = %13
  %21 = tail call i32 @unlink_or_warn(ptr noundef nonnull %8) #16
  br label %remove_or_warn.exit

remove_or_warn.exit:                              ; preds = %18, %20
  %22 = phi i32 [ %19, %18 ], [ %21, %20 ]
  %.not10 = icmp eq i32 %22, 0
  br i1 %.not10, label %23, label %25

23:                                               ; preds = %remove_or_warn.exit
  %24 = load i32, ptr %9, align 8, !tbaa !11
  tail call void @schedule_dir_for_removal(ptr noundef nonnull %8, i32 noundef %24) #16
  br label %25

25:                                               ; preds = %remove_or_warn.exit, %7, %23
  ret void
}